; Function Attrs: mustprogress uwtable
define dso_local void @_ZNK7testing15AssertionResultntEv(ptr dead_on_unwind noalias writable sret(%"class.testing::AssertionResult") align 8 initializes((0, 1), (8, 16)) %0, ptr noundef nonnull readonly align 8 captures(none) dereferenceable(16) %1) local_unnamed_addr #3 align 2 personality ptr @__gxx_personality_v0 {
  %3 = load i8, ptr %1, align 8, !tbaa !4, !range !17, !noundef !18
  %4 = xor i8 %3, 1
  store i8 %4, ptr %0, align 8, !tbaa !4
  %5 = getelementptr inbounds nuw i8, ptr %0, i64 8
  store ptr null, ptr %5, align 8, !tbaa !30
  %6 = getelementptr inbounds nuw i8, ptr %1, i64 8
  %7 = load ptr, ptr %6, align 8, !tbaa !19
  %.not = icmp eq ptr %7, null
  br i1 %.not, label %12, label %8

8:                                                ; preds = %2
  %9 = invoke noundef nonnull align 8 dereferenceable(16) ptr @_ZN7testing15AssertionResultlsINSt7__cxx1112basic_stringIcSt11char_traitsIcESaIcEEEEERS0_RKT_(ptr noundef nonnull align 8 dereferenceable(16) %0, ptr noundef nonnull align 8 dereferenceable(32) %7)
          to label %12 unwind label %10

10:                                               ; preds = %8
  %11 = landingpad { ptr, i32 }
          cleanup
  tail call void @_ZN7testing15AssertionResultD2Ev(ptr noundef nonnull align 8 dereferenceable(16) %0) #57
  resume { ptr, i32 } %11

12:                                               ; preds = %2, %8
  ret void
}